; Function Attrs: mustprogress nounwind uwtable
define dso_local void @_ZN4node22PerIsolatePlatformData26PostNonNestableDelayedTaskESt10unique_ptrIN2v84TaskESt14default_deleteIS3_EEd(ptr noundef nonnull align 8 dereferenceable(576) %this, ptr nocapture noundef %task, double noundef %delay_in_seconds) unnamed_addr #3 align 2 {
entry:
  %agg.tmp = alloca %"class.std::unique_ptr.22", align 8
  %0 = load i64, ptr %task, align 8
  store i64 %0, ptr %agg.tmp, align 8
  store ptr null, ptr %task, align 8
  %vtable = load ptr, ptr %this, align 8
  %vfn = getelementptr inbounds i8, ptr %vtable, i64 48
  %1 = load ptr, ptr %vfn, align 8
  call void %1(ptr noundef nonnull align 8 dereferenceable(576) %this, ptr noundef nonnull %agg.tmp, double noundef %delay_in_seconds) #23
  %2 = load ptr, ptr %agg.tmp, align 8
  %cmp.not.i = icmp eq ptr %2, null
  br i1 %cmp.not.i, label %_ZNSt10unique_ptrIN2v84TaskESt14default_deleteIS1_EED2Ev.exit, label %_ZNKSt14default_deleteIN2v84TaskEEclEPS1_.exit.i

_ZNKSt14default_deleteIN2v84TaskEEclEPS1_.exit.i: ; preds = %entry
  %vtable.i.i = load ptr, ptr %2, align 8
  %vfn.i.i = getelementptr inbounds i8, ptr %vtable.i.i, i64 8
  %3 = load ptr, ptr %vfn.i.i, align 8
  call void %3(ptr noundef nonnull align 8 dereferenceable(8) %2) #23
  br label %_ZNSt10unique_ptrIN2v84TaskESt14default_deleteIS1_EED2Ev.exit

_ZNSt10unique_ptrIN2v84TaskESt14default_deleteIS1_EED2Ev.exit: ; preds = %entry, %_ZNKSt14default_deleteIN2v84TaskEEclEPS1_.exit.i
  ret void
}